; Function Attrs: mustprogress nounwind uwtable
define hidden void @_ZN6hermes7PhiInst11removeEntryEPNS_10BasicBlockE(ptr noundef nonnull align 8 dereferenceable(132) %this, ptr noundef readnone %BB) local_unnamed_addr #0 align 2 {
entry:
  %call.i58 = tail call noundef i32 @_ZNK6hermes11Instruction14getNumOperandsEv(ptr noundef nonnull align 8 dereferenceable(132) %this) #15
  %cmp710.not = icmp ult i32 %call.i58, 2
  br i1 %cmp710.not, label %while.end, label %while.body.lr.ph

while.body.lr.ph:                                 ; preds = %entry, %if.end
  %i.0.ph11 = phi i32 [ %inc, %if.end ], [ 0, %entry ]
  %mul.i.i = shl nuw i32 %i.0.ph11, 1
  %add.i = or disjoint i32 %mul.i.i, 1
  br label %while.body

while.body:                                       ; preds = %while.body.lr.ph, %if.then
  %call2.i = tail call noundef ptr @_ZNK6hermes11Instruction10getOperandEj(ptr noundef nonnull align 8 dereferenceable(132) %this, i32 noundef %mul.i.i) #15
  %call5.i = tail call noundef ptr @_ZNK6hermes11Instruction10getOperandEj(ptr noundef nonnull align 8 dereferenceable(132) %this, i32 noundef %add.i) #15
  %0 = icmp eq ptr %call5.i, null
  %sub.ptr.i.i.i = getelementptr inbounds i8, ptr %call5.i, i64 -16
  %1 = select i1 %0, ptr null, ptr %sub.ptr.i.i.i
  %cmp3 = icmp eq ptr %1, %BB
  br i1 %cmp3, label %if.then, label %if.end

if.then:                                          ; preds = %while.body
  tail call void @_ZN6hermes11Instruction13removeOperandEj(ptr noundef nonnull align 8 dereferenceable(132) %this, i32 noundef %mul.i.i) #15
  tail call void @_ZN6hermes11Instruction13removeOperandEj(ptr noundef nonnull align 8 dereferenceable(132) %this, i32 noundef %mul.i.i) #15
  %call.i = tail call noundef i32 @_ZNK6hermes11Instruction14getNumOperandsEv(ptr noundef nonnull align 8 dereferenceable(132) %this) #15
  %div1.i = lshr i32 %call.i, 1
  %cmp = icmp samesign ult i32 %i.0.ph11, %div1.i
  br i1 %cmp, label %while.body, label %while.end, !llvm.loop !9

if.end:                                           ; preds = %while.body
  %inc = add nuw nsw i32 %i.0.ph11, 1
  %call.i5 = tail call noundef i32 @_ZNK6hermes11Instruction14getNumOperandsEv(ptr noundef nonnull align 8 dereferenceable(132) %this) #15
  %div1.i6 = lshr i32 %call.i5, 1
  %cmp7 = icmp samesign ult i32 %inc, %div1.i6
  br i1 %cmp7, label %while.body.lr.ph, label %while.end, !llvm.loop !9

while.end:                                        ; preds = %if.end, %if.then, %entry
  ret void
}